target datalayout = "e-m:e-p270:32:32-p271:32:32-p272:64:64-i64:64-i128:128-f80:128-n8:16:32:64-S128"
target triple = "x86_64-pc-linux-gnu"

; Function Attrs: nounwind uwtable
define i32 @Dau_DsdMergeStatus_rec(ptr noundef %0, ptr noundef %1, ptr noundef %2, i32 noundef %3, ptr noundef %4) #0 {
  %6 = alloca i32, align 4
  %7 = alloca ptr, align 8
  %8 = alloca ptr, align 8
  %9 = alloca ptr, align 8
  %10 = alloca i32, align 4
  %11 = alloca ptr, align 8
  %12 = alloca ptr, align 8
  %13 = alloca ptr, align 8
  %14 = alloca i32, align 4
  %15 = alloca i32, align 4
  %16 = alloca i32, align 4
  %17 = alloca ptr, align 8
  %18 = alloca ptr, align 8
  store ptr %0, ptr %7, align 8
  store ptr %1, ptr %8, align 8
  store ptr %2, ptr %9, align 8
  store i32 %3, ptr %10, align 4
  store ptr %4, ptr %11, align 8
  %19 = load ptr, ptr %8, align 8
  %20 = load ptr, ptr %19, align 8
  %21 = load i8, ptr %20, align 1
  %22 = sext i8 %21 to i32
  %23 = icmp eq i32 %22, 33
  br i1 %23, label %24, label %36

24:                                               ; preds = %5
  %25 = load ptr, ptr %11, align 8
  %26 = load ptr, ptr %8, align 8
  %27 = load ptr, ptr %26, align 8
  %28 = load ptr, ptr %7, align 8
  %29 = ptrtoint ptr %27 to i64
  %30 = ptrtoint ptr %28 to i64
  %31 = sub i64 %29, %30
  %32 = getelementptr inbounds i32, ptr %25, i64 %31
  store i32 -1, ptr %32, align 4
  %33 = load ptr, ptr %8, align 8
  %34 = load ptr, ptr %33, align 8
  %35 = getelementptr inbounds i8, ptr %34, i32 1
  store ptr %35, ptr %33, align 8
  br label %36

36:                                               ; preds = %24, %5
  br label %37

37:                                               ; preds = %65, %36
  %38 = load ptr, ptr %8, align 8
  %39 = load ptr, ptr %38, align 8
  %40 = load i8, ptr %39, align 1
  %41 = sext i8 %40 to i32
  %42 = icmp sge i32 %41, 65
  br i1 %42, label %43, label %49

43:                                               ; preds = %37
  %44 = load ptr, ptr %8, align 8
  %45 = load ptr, ptr %44, align 8
  %46 = load i8, ptr %45, align 1
  %47 = sext i8 %46 to i32
  %48 = icmp sle i32 %47, 70
  br i1 %48, label %63, label %49

49:                                               ; preds = %43, %37
  %50 = load ptr, ptr %8, align 8
  %51 = load ptr, ptr %50, align 8
  %52 = load i8, ptr %51, align 1
  %53 = sext i8 %52 to i32
  %54 = icmp sge i32 %53, 48
  br i1 %54, label %55, label %61

55:                                               ; preds = %49
  %56 = load ptr, ptr %8, align 8
  %57 = load ptr, ptr %56, align 8
  %58 = load i8, ptr %57, align 1
  %59 = sext i8 %58 to i32
  %60 = icmp sle i32 %59, 57
  br label %61

61:                                               ; preds = %55, %49
  %62 = phi i1 [ false, %49 ], [ %60, %55 ]
  br label %63

63:                                               ; preds = %61, %43
  %64 = phi i1 [ true, %43 ], [ %62, %61 ]
  br i1 %64, label %65, label %77

65:                                               ; preds = %63
  %66 = load ptr, ptr %11, align 8
  %67 = load ptr, ptr %8, align 8
  %68 = load ptr, ptr %67, align 8
  %69 = load ptr, ptr %7, align 8
  %70 = ptrtoint ptr %68 to i64
  %71 = ptrtoint ptr %69 to i64
  %72 = sub i64 %70, %71
  %73 = getelementptr inbounds i32, ptr %66, i64 %72
  store i32 -1, ptr %73, align 4
  %74 = load ptr, ptr %8, align 8
  %75 = load ptr, ptr %74, align 8
  %76 = getelementptr inbounds i8, ptr %75, i32 1
  store ptr %76, ptr %74, align 8
  br label %37, !llvm.loop !4

77:                                               ; preds = %63
  %78 = load ptr, ptr %8, align 8
  %79 = load ptr, ptr %78, align 8
  %80 = load i8, ptr %79, align 1
  %81 = sext i8 %80 to i32
  %82 = icmp eq i32 %81, 60
  br i1 %82, label %83, label %125

83:                                               ; preds = %77
  %84 = load ptr, ptr %7, align 8
  %85 = load ptr, ptr %9, align 8
  %86 = load ptr, ptr %8, align 8
  %87 = load ptr, ptr %86, align 8
  %88 = load ptr, ptr %7, align 8
  %89 = ptrtoint ptr %87 to i64
  %90 = ptrtoint ptr %88 to i64
  %91 = sub i64 %89, %90
  %92 = getelementptr inbounds i32, ptr %85, i64 %91
  %93 = load i32, ptr %92, align 4
  %94 = sext i32 %93 to i64
  %95 = getelementptr inbounds i8, ptr %84, i64 %94
  store ptr %95, ptr %12, align 8
  %96 = load ptr, ptr %12, align 8
  %97 = getelementptr inbounds i8, ptr %96, i64 1
  %98 = load i8, ptr %97, align 1
  %99 = sext i8 %98 to i32
  %100 = icmp eq i32 %99, 123
  br i1 %100, label %101, label %124

101:                                              ; preds = %83
  %102 = load ptr, ptr %8, align 8
  %103 = load ptr, ptr %102, align 8
  store ptr %103, ptr %13, align 8
  %104 = load ptr, ptr %12, align 8
  %105 = getelementptr inbounds i8, ptr %104, i64 1
  %106 = load ptr, ptr %8, align 8
  store ptr %105, ptr %106, align 8
  br label %107

107:                                              ; preds = %120, %101
  %108 = load ptr, ptr %13, align 8
  %109 = load ptr, ptr %12, align 8
  %110 = getelementptr inbounds i8, ptr %109, i64 1
  %111 = icmp ult ptr %108, %110
  br i1 %111, label %112, label %123

112:                                              ; preds = %107
  %113 = load ptr, ptr %11, align 8
  %114 = load ptr, ptr %13, align 8
  %115 = load ptr, ptr %7, align 8
  %116 = ptrtoint ptr %114 to i64
  %117 = ptrtoint ptr %115 to i64
  %118 = sub i64 %116, %117
  %119 = getelementptr inbounds i32, ptr %113, i64 %118
  store i32 -1, ptr %119, align 4
  br label %120

120:                                              ; preds = %112
  %121 = load ptr, ptr %13, align 8
  %122 = getelementptr inbounds i8, ptr %121, i32 1
  store ptr %122, ptr %13, align 8
  br label %107, !llvm.loop !6

123:                                              ; preds = %107
  br label %124

124:                                              ; preds = %123, %83
  br label %125

125:                                              ; preds = %124, %77
  %126 = load ptr, ptr %8, align 8
  %127 = load ptr, ptr %126, align 8
  %128 = load i8, ptr %127, align 1
  %129 = sext i8 %128 to i32
  %130 = icmp sge i32 %129, 97
  br i1 %130, label %131, label %154

131:                                              ; preds = %125
  %132 = load ptr, ptr %8, align 8
  %133 = load ptr, ptr %132, align 8
  %134 = load i8, ptr %133, align 1
  %135 = sext i8 %134 to i32
  %136 = icmp sle i32 %135, 122
  br i1 %136, label %137, label %154

137:                                              ; preds = %131
  %138 = load ptr, ptr %8, align 8
  %139 = load ptr, ptr %138, align 8
  %140 = load i8, ptr %139, align 1
  %141 = sext i8 %140 to i32
  %142 = sub nsw i32 %141, 97
  %143 = load i32, ptr %10, align 4
  %144 = icmp slt i32 %142, %143
  %145 = select i1 %144, i32 0, i32 3
  %146 = load ptr, ptr %11, align 8
  %147 = load ptr, ptr %8, align 8
  %148 = load ptr, ptr %147, align 8
  %149 = load ptr, ptr %7, align 8
  %150 = ptrtoint ptr %148 to i64
  %151 = ptrtoint ptr %149 to i64
  %152 = sub i64 %150, %151
  %153 = getelementptr inbounds i32, ptr %146, i64 %152
  store i32 %145, ptr %153, align 4
  store i32 %145, ptr %6, align 4
  br label %251

154:                                              ; preds = %131, %125
  %155 = load ptr, ptr %8, align 8
  %156 = load ptr, ptr %155, align 8
  %157 = load i8, ptr %156, align 1
  %158 = sext i8 %157 to i32
  %159 = icmp eq i32 %158, 40
  br i1 %159, label %178, label %160

160:                                              ; preds = %154
  %161 = load ptr, ptr %8, align 8
  %162 = load ptr, ptr %161, align 8
  %163 = load i8, ptr %162, align 1
  %164 = sext i8 %163 to i32
  %165 = icmp eq i32 %164, 91
  br i1 %165, label %178, label %166

166:                                              ; preds = %160
  %167 = load ptr, ptr %8, align 8
  %168 = load ptr, ptr %167, align 8
  %169 = load i8, ptr %168, align 1
  %170 = sext i8 %169 to i32
  %171 = icmp eq i32 %170, 60
  br i1 %171, label %178, label %172

172:                                              ; preds = %166
  %173 = load ptr, ptr %8, align 8
  %174 = load ptr, ptr %173, align 8
  %175 = load i8, ptr %174, align 1
  %176 = sext i8 %175 to i32
  %177 = icmp eq i32 %176, 123
  br i1 %177, label %178, label %250

178:                                              ; preds = %172, %166, %160, %154
  store i32 0, ptr %15, align 4
  store i32 0, ptr %16, align 4
  %179 = load ptr, ptr %8, align 8
  %180 = load ptr, ptr %179, align 8
  store ptr %180, ptr %17, align 8
  %181 = load ptr, ptr %7, align 8
  %182 = load ptr, ptr %9, align 8
  %183 = load ptr, ptr %8, align 8
  %184 = load ptr, ptr %183, align 8
  %185 = load ptr, ptr %7, align 8
  %186 = ptrtoint ptr %184 to i64
  %187 = ptrtoint ptr %185 to i64
  %188 = sub i64 %186, %187
  %189 = getelementptr inbounds i32, ptr %182, i64 %188
  %190 = load i32, ptr %189, align 4
  %191 = sext i32 %190 to i64
  %192 = getelementptr inbounds i8, ptr %181, i64 %191
  store ptr %192, ptr %18, align 8
  %193 = load ptr, ptr %8, align 8
  %194 = load ptr, ptr %193, align 8
  %195 = getelementptr inbounds i8, ptr %194, i32 1
  store ptr %195, ptr %193, align 8
  br label %196

196:                                              ; preds = %215, %178
  %197 = load ptr, ptr %8, align 8
  %198 = load ptr, ptr %197, align 8
  %199 = load ptr, ptr %18, align 8
  %200 = icmp ult ptr %198, %199
  br i1 %200, label %201, label %219

201:                                              ; preds = %196
  %202 = load ptr, ptr %7, align 8
  %203 = load ptr, ptr %8, align 8
  %204 = load ptr, ptr %9, align 8
  %205 = load i32, ptr %10, align 4
  %206 = load ptr, ptr %11, align 8
  %207 = call i32 @Dau_DsdMergeStatus_rec(ptr noundef %202, ptr noundef %203, ptr noundef %204, i32 noundef %205, ptr noundef %206)
  store i32 %207, ptr %14, align 4
  %208 = load i32, ptr %14, align 4
  %209 = icmp eq i32 %208, 3
  %210 = zext i1 %209 to i32
  %211 = load i32, ptr %15, align 4
  %212 = add nsw i32 %211, %210
  store i32 %212, ptr %15, align 4
  %213 = load i32, ptr %16, align 4
  %214 = add nsw i32 %213, 1
  store i32 %214, ptr %16, align 4
  br label %215

215:                                              ; preds = %201
  %216 = load ptr, ptr %8, align 8
  %217 = load ptr, ptr %216, align 8
  %218 = getelementptr inbounds i8, ptr %217, i32 1
  store ptr %218, ptr %216, align 8
  br label %196, !llvm.loop !7

219:                                              ; preds = %196
  %220 = load i32, ptr %15, align 4
  %221 = icmp eq i32 %220, 0
  br i1 %221, label %222, label %223

222:                                              ; preds = %219
  store i32 0, ptr %14, align 4
  br label %241

223:                                              ; preds = %219
  %224 = load i32, ptr %15, align 4
  %225 = icmp eq i32 %224, 1
  br i1 %225, label %226, label %227

226:                                              ; preds = %223
  store i32 1, ptr %14, align 4
  br label %240

227:                                              ; preds = %223
  %228 = load i32, ptr %15, align 4
  %229 = load i32, ptr %16, align 4
  %230 = icmp slt i32 %228, %229
  br i1 %230, label %231, label %232

231:                                              ; preds = %227
  store i32 2, ptr %14, align 4
  br label %239

232:                                              ; preds = %227
  %233 = load i32, ptr %15, align 4
  %234 = load i32, ptr %16, align 4
  %235 = icmp eq i32 %233, %234
  br i1 %235, label %236, label %237

236:                                              ; preds = %232
  store i32 3, ptr %14, align 4
  br label %238

237:                                              ; preds = %232
  br label %238

238:                                              ; preds = %237, %236
  br label %239

239:                                              ; preds = %238, %231
  br label %240

240:                                              ; preds = %239, %226
  br label %241

241:                                              ; preds = %240, %222
  %242 = load i32, ptr %14, align 4
  %243 = load ptr, ptr %11, align 8
  %244 = load ptr, ptr %17, align 8
  %245 = load ptr, ptr %7, align 8
  %246 = ptrtoint ptr %244 to i64
  %247 = ptrtoint ptr %245 to i64
  %248 = sub i64 %246, %247
  %249 = getelementptr inbounds i32, ptr %243, i64 %248
  store i32 %242, ptr %249, align 4
  store i32 %242, ptr %6, align 4
  br label %251

250:                                              ; preds = %172
  store i32 0, ptr %6, align 4
  br label %251

251:                                              ; preds = %250, %241, %137
  %252 = load i32, ptr %6, align 4
  ret i32 %252
}