; Function Attrs: nofree nosync nounwind memory(read, argmem: readwrite, inaccessiblemem: none) uwtable
define i32 @Dau_DsdMergeStatus_rec(ptr noundef %0, ptr noundef captures(none) %1, ptr noundef readonly captures(none) %2, i32 noundef %3, ptr noundef writeonly captures(none) %4) local_unnamed_addr #0 {
  %6 = load ptr, ptr %1, align 8
  %7 = load i8, ptr %6, align 1
  %8 = icmp eq i8 %7, 33
  br i1 %8, label %9, label %16

9:                                                ; preds = %5
  %10 = ptrtoint ptr %6 to i64
  %11 = ptrtoint ptr %0 to i64
  %12 = sub i64 %10, %11
  %13 = getelementptr inbounds i32, ptr %4, i64 %12
  store i32 -1, ptr %13, align 4
  %14 = load ptr, ptr %1, align 8
  %15 = getelementptr inbounds nuw i8, ptr %14, i64 1
  store ptr %15, ptr %1, align 8
  %.pre = load i8, ptr %15, align 1
  br label %16

16:                                               ; preds = %9, %5
  %17 = phi i8 [ %.pre, %9 ], [ %7, %5 ]
  %18 = phi ptr [ %15, %9 ], [ %6, %5 ]
  %19 = add i8 %17, -65
  %or.cond80 = icmp ult i8 %19, 6
  %20 = add i8 %17, -48
  %or.cond7681 = icmp ult i8 %20, 10
  %or.cond7882 = or i1 %or.cond80, %or.cond7681
  br i1 %or.cond7882, label %.critedge.lr.ph, label %.critedge2

.critedge.lr.ph:                                  ; preds = %16
  %21 = ptrtoint ptr %0 to i64
  br label %.critedge

.critedge:                                        ; preds = %.critedge.lr.ph, %.critedge
  %22 = phi ptr [ %18, %.critedge.lr.ph ], [ %27, %.critedge ]
  %23 = ptrtoint ptr %22 to i64
  %24 = sub i64 %23, %21
  %25 = getelementptr inbounds i32, ptr %4, i64 %24
  store i32 -1, ptr %25, align 4
  %26 = load ptr, ptr %1, align 8
  %27 = getelementptr inbounds nuw i8, ptr %26, i64 1
  store ptr %27, ptr %1, align 8
  %28 = load i8, ptr %27, align 1
  %29 = add i8 %28, -65
  %or.cond = icmp ult i8 %29, 6
  %30 = add i8 %28, -48
  %or.cond76 = icmp ult i8 %30, 10
  %or.cond78 = or i1 %or.cond, %or.cond76
  br i1 %or.cond78, label %.critedge, label %.critedge2, !llvm.loop !4

.critedge2:                                       ; preds = %.critedge, %16
  %.lcssa79 = phi ptr [ %18, %16 ], [ %27, %.critedge ]
  %.lcssa = phi i8 [ %17, %16 ], [ %28, %.critedge ]
  %31 = icmp eq i8 %.lcssa, 60
  br i1 %31, label %32, label %.loopexit

32:                                               ; preds = %.critedge2
  %33 = ptrtoint ptr %.lcssa79 to i64
  %34 = ptrtoint ptr %0 to i64
  %35 = sub i64 %33, %34
  %36 = getelementptr inbounds i32, ptr %2, i64 %35
  %37 = load i32, ptr %36, align 4
  %38 = sext i32 %37 to i64
  %39 = getelementptr inbounds i8, ptr %0, i64 %38
  %40 = getelementptr inbounds nuw i8, ptr %39, i64 1
  %41 = load i8, ptr %40, align 1
  %42 = icmp eq i8 %41, 123
  br i1 %42, label %43, label %.loopexit

43:                                               ; preds = %32
  store ptr %40, ptr %1, align 8
  %44 = icmp ult ptr %.lcssa79, %40
  br i1 %44, label %.lr.ph.preheader, label %.loopexit

.lr.ph.preheader:                                 ; preds = %43
  %45 = sub i64 %33, %34
  %46 = shl i64 %45, 2
  %scevgep = getelementptr i8, ptr %4, i64 %46
  %47 = add i64 %34, %38
  %umax = tail call i64 @llvm.umax.i64(i64 %33, i64 %47)
  %48 = add i64 %umax, 1
  %49 = sub i64 %48, %33
  %50 = shl nuw i64 %49, 2
  tail call void @llvm.memset.p0.i64(ptr align 4 %scevgep, i8 -1, i64 %50, i1 false)
  %.pre97 = load ptr, ptr %1, align 8
  br label %.loopexit

.loopexit:                                        ; preds = %.lr.ph.preheader, %43, %32, %.critedge2
  %51 = phi ptr [ %.pre97, %.lr.ph.preheader ], [ %40, %43 ], [ %.lcssa79, %32 ], [ %.lcssa79, %.critedge2 ]
  %52 = load i8, ptr %51, align 1
  %53 = add i8 %52, -97
  %or.cond77 = icmp ult i8 %53, 26
  br i1 %or.cond77, label %54, label %61

54:                                               ; preds = %.loopexit
  %55 = zext nneg i8 %53 to i32
  %56 = icmp sgt i32 %3, %55
  %57 = select i1 %56, i32 0, i32 3
  %58 = ptrtoint ptr %51 to i64
  %59 = ptrtoint ptr %0 to i64
  %60 = sub i64 %58, %59
  br label %.sink.split

61:                                               ; preds = %.loopexit
  switch i8 %52, label %82 [
    i8 40, label %62
    i8 91, label %62
    i8 60, label %62
    i8 123, label %62
  ]

62:                                               ; preds = %61, %61, %61, %61
  %63 = ptrtoint ptr %51 to i64
  %64 = ptrtoint ptr %0 to i64
  %65 = sub i64 %63, %64
  %66 = getelementptr inbounds i32, ptr %2, i64 %65
  %67 = load i32, ptr %66, align 4
  %68 = sext i32 %67 to i64
  %69 = getelementptr inbounds i8, ptr %0, i64 %68
  %storemerge85 = getelementptr inbounds nuw i8, ptr %51, i64 1
  store ptr %storemerge85, ptr %1, align 8
  %70 = icmp ult ptr %storemerge85, %69
  br i1 %70, label %.lr.ph88, label %.sink.split

.lr.ph88:                                         ; preds = %62, %.lr.ph88
  %.06987 = phi i32 [ %75, %.lr.ph88 ], [ 0, %62 ]
  %.07086 = phi i32 [ %74, %.lr.ph88 ], [ 0, %62 ]
  %71 = tail call i32 @Dau_DsdMergeStatus_rec(ptr noundef %0, ptr noundef nonnull %1, ptr noundef %2, i32 noundef %3, ptr noundef %4)
  %72 = icmp eq i32 %71, 3
  %73 = zext i1 %72 to i32
  %74 = add nuw nsw i32 %.07086, %73
  %75 = add nuw nsw i32 %.06987, 1
  %76 = load ptr, ptr %1, align 8
  %storemerge = getelementptr inbounds nuw i8, ptr %76, i64 1
  store ptr %storemerge, ptr %1, align 8
  %77 = icmp ult ptr %storemerge, %69
  br i1 %77, label %.lr.ph88, label %._crit_edge, !llvm.loop !6

._crit_edge:                                      ; preds = %.lr.ph88
  %switch = icmp samesign ult i32 %74, 2
  br i1 %switch, label %.sink.split, label %78

78:                                               ; preds = %._crit_edge
  %.not = icmp samesign ugt i32 %74, %.06987
  br i1 %.not, label %79, label %.sink.split

79:                                               ; preds = %78
  %80 = icmp eq i32 %74, %75
  %spec.select = select i1 %80, i32 3, i32 %71
  br label %.sink.split

.sink.split:                                      ; preds = %._crit_edge, %78, %79, %62, %54
  %.sink106 = phi i64 [ %60, %54 ], [ %65, %62 ], [ %65, %79 ], [ %65, %78 ], [ %65, %._crit_edge ]
  %.1.sink = phi i32 [ %57, %54 ], [ 0, %62 ], [ %spec.select, %79 ], [ 2, %78 ], [ %74, %._crit_edge ]
  %81 = getelementptr inbounds i32, ptr %4, i64 %.sink106
  store i32 %.1.sink, ptr %81, align 4
  br label %82

82:                                               ; preds = %.sink.split, %61
  %.0 = phi i32 [ 0, %61 ], [ %.1.sink, %.sink.split ]
  ret i32 %.0
}